; ModuleID = '58/1143.c'
source_filename = "58/1143.c"
target datalayout = "e-m:e-p270:32:32-p271:32:32-p272:64:64-i64:64-f80:128-n8:16:32:64-S128"
target triple = "x86_64-pc-linux-gnu"

@.str = private unnamed_addr constant [4 x i8] c"%d\0A\00", align 1

; Function Attrs: noinline nounwind uwtable
define dso_local i32 @pd(i8* %0) #0 {
  %2 = alloca i32, align 4
  %3 = alloca i8*, align 8
  store i8* %0, i8** %3, align 8
  %4 = load i8*, i8** %3, align 8
  %5 = load i8, i8* %4, align 1
  %6 = sext i8 %5 to i32
  %7 = icmp sge i32 %6, 97
  br i1 %7, label %8, label %13

8:                                                ; preds = %1
  %9 = load i8*, i8** %3, align 8
  %10 = load i8, i8* %9, align 1
  %11 = sext i8 %10 to i32
  %12 = icmp sle i32 %11, 122
  br i1 %12, label %28, label %13

13:                                               ; preds = %8, %1
  %14 = load i8*, i8** %3, align 8
  %15 = load i8, i8* %14, align 1
  %16 = sext i8 %15 to i32
  %17 = icmp sge i32 %16, 65
  br i1 %17, label %18, label %23

18:                                               ; preds = %13
  %19 = load i8*, i8** %3, align 8
  %20 = load i8, i8* %19, align 1
  %21 = sext i8 %20 to i32
  %22 = icmp sle i32 %21, 90
  br i1 %22, label %28, label %23

23:                                               ; preds = %18, %13
  %24 = load i8*, i8** %3, align 8
  %25 = load i8, i8* %24, align 1
  %26 = sext i8 %25 to i32
  %27 = icmp eq i32 %26, 95
  br i1 %27, label %28, label %84

28:                                               ; preds = %23, %18, %8
  %29 = load i8*, i8** %3, align 8
  %30 = getelementptr inbounds i8, i8* %29, i64 1
  store i8* %30, i8** %3, align 8
  br label %31

31:                                               ; preds = %74, %28
  %32 = load i8*, i8** %3, align 8
  %33 = load i8, i8* %32, align 1
  %34 = sext i8 %33 to i32
  %35 = icmp ne i32 %34, 0
  br i1 %35, label %36, label %77

36:                                               ; preds = %31
  %37 = load i8*, i8** %3, align 8
  %38 = load i8, i8* %37, align 1
  %39 = sext i8 %38 to i32
  %40 = icmp sge i32 %39, 97
  br i1 %40, label %41, label %46

41:                                               ; preds = %36
  %42 = load i8*, i8** %3, align 8
  %43 = load i8, i8* %42, align 1
  %44 = sext i8 %43 to i32
  %45 = icmp sle i32 %44, 122
  br i1 %45, label %71, label %46

46:                                               ; preds = %41, %36
  %47 = load i8*, i8** %3, align 8
  %48 = load i8, i8* %47, align 1
  %49 = sext i8 %48 to i32
  %50 = icmp sge i32 %49, 65
  br i1 %50, label %51, label %56

51:                                               ; preds = %46
  %52 = load i8*, i8** %3, align 8
  %53 = load i8, i8* %52, align 1
  %54 = sext i8 %53 to i32
  %55 = icmp sle i32 %54, 90
  br i1 %55, label %71, label %56

56:                                               ; preds = %51, %46
  %57 = load i8*, i8** %3, align 8
  %58 = load i8, i8* %57, align 1
  %59 = sext i8 %58 to i32
  %60 = icmp sge i32 %59, 48
  br i1 %60, label %61, label %66

61:                                               ; preds = %56
  %62 = load i8*, i8** %3, align 8
  %63 = load i8, i8* %62, align 1
  %64 = sext i8 %63 to i32
  %65 = icmp sle i32 %64, 57
  br i1 %65, label %71, label %66

66:                                               ; preds = %61, %56
  %67 = load i8*, i8** %3, align 8
  %68 = load i8, i8* %67, align 1
  %69 = sext i8 %68 to i32
  %70 = icmp eq i32 %69, 95
  br i1 %70, label %71, label %72

71:                                               ; preds = %66, %61, %51, %41
  br label %73

72:                                               ; preds = %66
  br label %77

73:                                               ; preds = %71
  br label %74

74:                                               ; preds = %73
  %75 = load i8*, i8** %3, align 8
  %76 = getelementptr inbounds i8, i8* %75, i32 1
  store i8* %76, i8** %3, align 8
  br label %31

77:                                               ; preds = %72, %31
  %78 = load i8*, i8** %3, align 8
  %79 = load i8, i8* %78, align 1
  %80 = sext i8 %79 to i32
  %81 = icmp eq i32 %80, 0
  br i1 %81, label %82, label %83

82:                                               ; preds = %77
  store i32 1, i32* %2, align 4
  br label %85

83:                                               ; preds = %77
  store i32 0, i32* %2, align 4
  br label %85

84:                                               ; preds = %23
  store i32 0, i32* %2, align 4
  br label %85

85:                                               ; preds = %84, %83, %82
  %86 = load i32, i32* %2, align 4
  ret i32 %86
}

; Function Attrs: noinline nounwind uwtable
define dso_local void @main() #0 {
  %1 = alloca i32, align 4
  %2 = alloca i32, align 4
  %3 = alloca i8*, align 8
  %4 = call i32 (i8*, ...) @__isoc99_scanf(i8* getelementptr inbounds ([4 x i8], [4 x i8]* @.str, i64 0, i64 0), i32* %2)
  store i32 0, i32* %1, align 4
  br label %5

5:                                                ; preds = %16, %0
  %6 = load i32, i32* %1, align 4
  %7 = load i32, i32* %2, align 4
  %8 = icmp slt i32 %6, %7
  br i1 %8, label %9, label %19

9:                                                ; preds = %5
  %10 = call noalias i8* @malloc(i64 1000) #3
  store i8* %10, i8** %3, align 8
  %11 = load i8*, i8** %3, align 8
  %12 = call i32 (i8*, ...) bitcast (i32 (...)* @gets to i32 (i8*, ...)*)(i8* %11)
  %13 = load i8*, i8** %3, align 8
  %14 = call i32 @pd(i8* %13)
  %15 = call i32 (i8*, ...) @printf(i8* getelementptr inbounds ([4 x i8], [4 x i8]* @.str, i64 0, i64 0), i32 %14)
  br label %16

16:                                               ; preds = %9
  %17 = load i32, i32* %1, align 4
  %18 = add nsw i32 %17, 1
  store i32 %18, i32* %1, align 4
  br label %5

19:                                               ; preds = %5
  ret void
}

declare dso_local i32 @__isoc99_scanf(i8*, ...) #1

; Function Attrs: nounwind
declare dso_local noalias i8* @malloc(i64) #2

declare dso_local i32 @gets(...) #1

declare dso_local i32 @printf(i8*, ...) #1


!llvm.module.flags = !{!0}
!llvm.ident = !{!1}

!0 = !{i32 1, !"wchar_size", i32 4}
!1 = !{!"clang version 10.0.0-4ubuntu1 "}
